target datalayout = "e-m:e-p270:32:32-p271:32:32-p272:64:64-i64:64-i128:128-f80:128-n8:16:32:64-S128"
target triple = "x86_64-pc-linux-gnu"

%struct.ParseContext_ = type { %struct.TokenData, i32, %union.SourceSpan, %union.SourceSpan, ptr, %struct.Lexer }
%struct.TokenData = type { ptr, i64, %union.anon.86 }
%union.anon.86 = type { %struct.anon.89 }
%struct.anon.89 = type { %struct.Int128_, i8 }
%struct.Int128_ = type { i64, i64 }
%union.SourceSpan = type { i64 }
%struct.Lexer = type { ptr, ptr, ptr, ptr, i32, i32, ptr, ptr, ptr, %struct.TokenData, %union.SourceSpan, i32, i32 }
%struct.anon.0 = type { i16, i8, i8, i32 }
%struct.Expr_ = type { ptr, %union.SourceSpan, i16, %union.anon.30 }
%union.anon.30 = type { %struct.ExprAnySwitch }
%struct.ExprAnySwitch = type { i8, %union.anon.32 }
%union.anon.32 = type { %struct.anon.33 }
%struct.anon.33 = type { ptr, %union.SourceSpan, ptr }
%struct.Decl_ = type { ptr, ptr, %union.SourceSpan, i64, %union.anon, i32, %union.anon.1, i64, ptr, ptr, ptr, %union.anon.2 }
%union.anon = type { ptr }
%union.anon.1 = type { i16 }
%union.anon.2 = type { %struct.FuncDecl }
%struct.FuncDecl = type { i32, [4 x i8], %struct.Signature_, i32, i32, %union.anon.9 }
%struct.Signature_ = type <{ %struct.CalleeAttributes, i16, i8, i32, i32, [4 x i8], ptr }>
%struct.CalleeAttributes = type { i8 }
%union.anon.9 = type { %struct.anon.10 }
%struct.anon.10 = type { i16, %union.anon.11 }
%union.anon.11 = type { ptr }
%struct.VarDecl_ = type { i32, i32, %union.anon.15, %union.anon.16 }
%union.anon.15 = type { ptr }
%union.anon.16 = type { %struct.anon.17 }
%struct.anon.17 = type { ptr, %union.SourceSpan }

@.str.17 = private unnamed_addr constant [36 x i8] c"Names of %ss must be all uppercase.\00", align 1
@.str.18 = private unnamed_addr constant [54 x i8] c"A constant name was expected here, did you forget it?\00", align 1
@poisoned_decl = external global ptr, align 8
@.str.23 = private unnamed_addr constant [6 x i8] c"const\00", align 1
@.str.82 = private unnamed_addr constant [15 x i8] c"Expected '%s'.\00", align 1

; Function Attrs: nounwind uwtable
define internal i64 @extend_span_with_token(i64 %0, i64 %1) #0 {
  %3 = alloca %union.SourceSpan, align 8
  %4 = alloca %union.SourceSpan, align 8
  %5 = alloca %union.SourceSpan, align 8
  %6 = getelementptr inbounds %union.SourceSpan, ptr %4, i32 0, i32 0
  store i64 %0, ptr %6, align 8
  %7 = getelementptr inbounds %union.SourceSpan, ptr %5, i32 0, i32 0
  store i64 %1, ptr %7, align 8
  %8 = getelementptr inbounds %struct.anon.0, ptr %4, i32 0, i32 3
  %9 = load i32, ptr %8, align 4
  %10 = getelementptr inbounds %struct.anon.0, ptr %5, i32 0, i32 3
  %11 = load i32, ptr %10, align 4
  %12 = icmp ne i32 %9, %11
  br i1 %12, label %13, label %14

13:                                               ; preds = %2
  call void @llvm.memcpy.p0.p0.i64(ptr align 8 %3, ptr align 8 %4, i64 8, i1 false)
  br label %28

14:                                               ; preds = %2
  %15 = getelementptr inbounds %struct.anon.0, ptr %5, i32 0, i32 2
  %16 = load i8, ptr %15, align 1
  %17 = zext i8 %16 to i32
  %18 = getelementptr inbounds %struct.anon.0, ptr %5, i32 0, i32 1
  %19 = load i8, ptr %18, align 2
  %20 = zext i8 %19 to i32
  %21 = add nsw i32 %17, %20
  %22 = getelementptr inbounds %struct.anon.0, ptr %4, i32 0, i32 2
  %23 = load i8, ptr %22, align 1
  %24 = zext i8 %23 to i32
  %25 = sub nsw i32 %21, %24
  %26 = trunc i32 %25 to i8
  %27 = getelementptr inbounds %struct.anon.0, ptr %4, i32 0, i32 1
  store i8 %26, ptr %27, align 2
  call void @llvm.memcpy.p0.p0.i64(ptr align 8 %3, ptr align 8 %4, i64 8, i1 false)
  br label %28

28:                                               ; preds = %14, %13
  %29 = getelementptr inbounds %union.SourceSpan, ptr %3, i32 0, i32 0
  %30 = load i64, ptr %29, align 8
  ret i64 %30
}

; Function Attrs: nounwind uwtable
define dso_local zeroext i1 @consume_const_name(ptr noundef %0, ptr noundef %1) #0 {
  %3 = alloca i32, align 4
  %4 = alloca ptr, align 8
  %5 = alloca i32, align 4
  %6 = alloca ptr, align 8
  %7 = alloca i32, align 4
  %8 = alloca i1, align 1
  %9 = alloca ptr, align 8
  %10 = alloca ptr, align 8
  store ptr %0, ptr %9, align 8
  store ptr %1, ptr %10, align 8
  %11 = load ptr, ptr %9, align 8
  store ptr %11, ptr %4, align 8
  store i32 64, ptr %5, align 4
  %12 = load ptr, ptr %4, align 8
  %13 = getelementptr inbounds %struct.ParseContext_, ptr %12, i32 0, i32 1
  %14 = load i32, ptr %13, align 8
  %15 = load i32, ptr %5, align 4
  %16 = icmp eq i32 %14, %15
  br i1 %16, label %35, label %17

17:                                               ; preds = %2
  %18 = load ptr, ptr %9, align 8
  store ptr %18, ptr %6, align 8
  store i32 66, ptr %7, align 4
  %19 = load ptr, ptr %6, align 8
  %20 = getelementptr inbounds %struct.ParseContext_, ptr %19, i32 0, i32 1
  %21 = load i32, ptr %20, align 8
  %22 = load i32, ptr %7, align 4
  %23 = icmp eq i32 %21, %22
  br i1 %23, label %35, label %24

24:                                               ; preds = %17
  %25 = load ptr, ptr %9, align 8
  %26 = getelementptr inbounds %struct.ParseContext_, ptr %25, i32 0, i32 1
  %27 = load i32, ptr %26, align 8
  store i32 %27, ptr %3, align 4
  %28 = load i32, ptr %3, align 4
  %29 = icmp uge i32 %28, 82
  br i1 %29, label %30, label %33

30:                                               ; preds = %24
  %31 = load i32, ptr %3, align 4
  %32 = icmp ule i32 %31, 144
  br label %33

33:                                               ; preds = %30, %24
  %34 = phi i1 [ false, %24 ], [ %32, %30 ]
  br i1 %34, label %35, label %43

35:                                               ; preds = %33, %17, %2
  br label %36

36:                                               ; preds = %35
  %37 = load ptr, ptr %9, align 8
  %38 = getelementptr inbounds %struct.ParseContext_, ptr %37, i32 0, i32 2
  %39 = load ptr, ptr %10, align 8
  %40 = getelementptr inbounds %union.SourceSpan, ptr %38, i32 0, i32 0
  %41 = load i64, ptr %40, align 8
  call void (i64, ptr, ...) @sema_error_at(i64 %41, ptr noundef @.str.17, ptr noundef %39)
  store i1 false, ptr %8, align 1
  br label %46

42:                                               ; No predecessors!
  br label %43

43:                                               ; preds = %42, %33
  %44 = load ptr, ptr %9, align 8
  %45 = call zeroext i1 (ptr, i32, ptr, ...) @consume(ptr noundef %44, i32 noundef 65, ptr noundef @.str.18)
  store i1 %45, ptr %8, align 1
  br label %46

46:                                               ; preds = %43, %36
  %47 = load i1, ptr %8, align 1
  ret i1 %47
}

; Function Attrs: nounwind uwtable
define dso_local ptr @parse_const_declaration(ptr noundef %0, i1 noundef zeroext %1, i1 noundef zeroext %2) #0 {
  %4 = alloca ptr, align 8
  %5 = alloca ptr, align 8
  %6 = alloca i32, align 4
  %7 = alloca i1, align 1
  %8 = alloca ptr, align 8
  %9 = alloca ptr, align 8
  %10 = alloca ptr, align 8
  %11 = alloca ptr, align 8
  %12 = alloca i32, align 4
  %13 = alloca i1, align 1
  %14 = alloca ptr, align 8
  %15 = alloca i32, align 4
  %16 = alloca ptr, align 8
  %17 = alloca ptr, align 8
  %18 = alloca ptr, align 8
  %19 = alloca ptr, align 8
  %20 = alloca i8, align 1
  %21 = alloca i8, align 1
  %22 = alloca ptr, align 8
  %23 = alloca ptr, align 8
  %24 = alloca ptr, align 8
  %25 = alloca %union.SourceSpan, align 8
  store ptr %0, ptr %19, align 8
  %26 = zext i1 %1 to i8
  store i8 %26, ptr %20, align 1
  %27 = zext i1 %2 to i8
  store i8 %27, ptr %21, align 1
  %28 = load ptr, ptr %19, align 8
  store ptr %28, ptr %5, align 8
  store i32 111, ptr %6, align 4
  %29 = load ptr, ptr %5, align 8
  call void @advance(ptr noundef %29) #6
  store ptr null, ptr %22, align 8
  %30 = load ptr, ptr %19, align 8
  %31 = getelementptr inbounds %struct.ParseContext_, ptr %30, i32 0, i32 1
  %32 = load i32, ptr %31, align 8
  %33 = icmp ne i32 %32, 65
  br i1 %33, label %34, label %53

34:                                               ; preds = %3
  %35 = load ptr, ptr %19, align 8
  %36 = call ptr @parse_optional_type(ptr noundef %35)
  store ptr %36, ptr %23, align 8
  %37 = load ptr, ptr %23, align 8
  store ptr %37, ptr %16, align 8
  %38 = load ptr, ptr %16, align 8
  %39 = icmp ne ptr %38, null
  br i1 %39, label %40, label %47

40:                                               ; preds = %34
  %41 = load ptr, ptr %16, align 8
  %42 = load i16, ptr %41, align 8
  %43 = lshr i16 %42, 3
  %44 = and i16 %43, 63
  %45 = zext i16 %44 to i32
  %46 = icmp ne i32 %45, 0
  br label %47

47:                                               ; preds = %40, %34
  %48 = phi i1 [ true, %34 ], [ %46, %40 ]
  br i1 %48, label %51, label %49

49:                                               ; preds = %47
  %50 = load ptr, ptr @poisoned_decl, align 8
  store ptr %50, ptr %18, align 8
  br label %156

51:                                               ; preds = %47
  %52 = load ptr, ptr %23, align 8
  store ptr %52, ptr %22, align 8
  br label %53

53:                                               ; preds = %51, %3
  %54 = load ptr, ptr %19, align 8
  store ptr %54, ptr %17, align 8
  %55 = load ptr, ptr %17, align 8
  %56 = getelementptr inbounds %struct.TokenData, ptr %55, i32 0, i32 2
  %57 = load ptr, ptr %56, align 8
  %58 = load ptr, ptr %19, align 8
  %59 = getelementptr inbounds %struct.ParseContext_, ptr %58, i32 0, i32 2
  %60 = load ptr, ptr %22, align 8
  %61 = getelementptr inbounds %union.SourceSpan, ptr %59, i32 0, i32 0
  %62 = load i64, ptr %61, align 8
  %63 = call ptr @decl_new_var(ptr noundef %57, i64 %62, ptr noundef %60, i32 noundef 0)
  store ptr %63, ptr %24, align 8
  %64 = load ptr, ptr %19, align 8
  %65 = call zeroext i1 @consume_const_name(ptr noundef %64, ptr noundef @.str.23)
  br i1 %65, label %68, label %66

66:                                               ; preds = %53
  %67 = load ptr, ptr @poisoned_decl, align 8
  store ptr %67, ptr %18, align 8
  br label %156

68:                                               ; preds = %53
  %69 = load i8, ptr %20, align 1
  %70 = trunc i8 %69 to i1
  br i1 %70, label %71, label %77

71:                                               ; preds = %68
  %72 = load ptr, ptr %19, align 8
  %73 = load ptr, ptr %24, align 8
  %74 = call zeroext i1 @parse_attributes_for_global(ptr noundef %72, ptr noundef %73)
  br i1 %74, label %76, label %75

75:                                               ; preds = %71
  store ptr null, ptr %18, align 8
  br label %156

76:                                               ; preds = %71
  br label %85

77:                                               ; preds = %68
  %78 = load ptr, ptr %19, align 8
  %79 = load ptr, ptr %24, align 8
  %80 = getelementptr inbounds %struct.Decl_, ptr %79, i32 0, i32 9
  %81 = call zeroext i1 @parse_attributes(ptr noundef %78, ptr noundef %80, ptr noundef null, ptr noundef null, ptr noundef null)
  br i1 %81, label %84, label %82

82:                                               ; preds = %77
  %83 = load ptr, ptr @poisoned_decl, align 8
  store ptr %83, ptr %18, align 8
  br label %156

84:                                               ; preds = %77
  br label %85

85:                                               ; preds = %84, %76
  %86 = load i8, ptr %21, align 1
  %87 = trunc i8 %86 to i1
  br i1 %87, label %88, label %90

88:                                               ; preds = %85
  %89 = load ptr, ptr %24, align 8
  store ptr %89, ptr %18, align 8
  br label %156

90:                                               ; preds = %85
  br label %91

91:                                               ; preds = %90
  %92 = load ptr, ptr %19, align 8
  store ptr %92, ptr %14, align 8
  store i32 10, ptr %15, align 4
  %93 = load ptr, ptr %14, align 8
  %94 = load i32, ptr %15, align 4
  store ptr %93, ptr %11, align 8
  store i32 %94, ptr %12, align 4
  %95 = load ptr, ptr %11, align 8
  %96 = getelementptr inbounds %struct.ParseContext_, ptr %95, i32 0, i32 1
  %97 = load i32, ptr %96, align 8
  %98 = load i32, ptr %12, align 4
  %99 = icmp eq i32 %97, %98
  br i1 %99, label %100, label %101

100:                                              ; preds = %91
  store i1 true, ptr %13, align 1
  br label %107

101:                                              ; preds = %91
  %102 = load ptr, ptr %14, align 8
  %103 = getelementptr inbounds %struct.ParseContext_, ptr %102, i32 0, i32 2
  %104 = load i32, ptr %15, align 4
  %105 = call ptr @token_type_to_string(i32 noundef %104) #6
  %106 = load i64, ptr %103, align 8
  call void (i64, ptr, ...) @sema_error_at(i64 %106, ptr noundef @.str.82, ptr noundef %105) #6
  store i1 false, ptr %13, align 1
  br label %107

107:                                              ; preds = %101, %100
  %108 = load i1, ptr %13, align 1
  br i1 %108, label %111, label %109

109:                                              ; preds = %107
  %110 = load ptr, ptr @poisoned_decl, align 8
  store ptr %110, ptr %18, align 8
  br label %156

111:                                              ; preds = %107
  %112 = load ptr, ptr %19, align 8
  call void @advance(ptr noundef %112)
  br label %113

113:                                              ; preds = %111
  %114 = load ptr, ptr %19, align 8
  %115 = load ptr, ptr %24, align 8
  store ptr %114, ptr %8, align 8
  store ptr %115, ptr %9, align 8
  %116 = load ptr, ptr %8, align 8
  %117 = call ptr @parse_expr(ptr noundef %116) #6
  store ptr %117, ptr %10, align 8
  %118 = load ptr, ptr %10, align 8
  store ptr %118, ptr %4, align 8
  %119 = load ptr, ptr %4, align 8
  %120 = icmp eq ptr %119, null
  br i1 %120, label %128, label %121

121:                                              ; preds = %113
  %122 = load ptr, ptr %4, align 8
  %123 = getelementptr inbounds %struct.Expr_, ptr %122, i32 0, i32 2
  %124 = load i16, ptr %123, align 8
  %125 = and i16 %124, 255
  %126 = zext i16 %125 to i32
  %127 = icmp ne i32 %126, 0
  br label %128

128:                                              ; preds = %121, %113
  %129 = phi i1 [ true, %113 ], [ %127, %121 ]
  br i1 %129, label %131, label %130

130:                                              ; preds = %128
  store i1 false, ptr %7, align 1
  br label %136

131:                                              ; preds = %128
  %132 = load ptr, ptr %10, align 8
  %133 = load ptr, ptr %9, align 8
  %134 = getelementptr inbounds %struct.Decl_, ptr %133, i32 0, i32 11
  %135 = getelementptr inbounds %struct.VarDecl_, ptr %134, i32 0, i32 2
  store ptr %132, ptr %135, align 8
  store i1 true, ptr %7, align 1
  br label %136

136:                                              ; preds = %131, %130
  %137 = load i1, ptr %7, align 1
  br i1 %137, label %140, label %138

138:                                              ; preds = %136
  %139 = load ptr, ptr @poisoned_decl, align 8
  store ptr %139, ptr %18, align 8
  br label %156

140:                                              ; preds = %136
  br label %141

141:                                              ; preds = %140
  %142 = load ptr, ptr %24, align 8
  %143 = getelementptr inbounds %struct.Decl_, ptr %142, i32 0, i32 2
  %144 = load ptr, ptr %24, align 8
  %145 = getelementptr inbounds %struct.Decl_, ptr %144, i32 0, i32 2
  %146 = load ptr, ptr %19, align 8
  %147 = getelementptr inbounds %struct.ParseContext_, ptr %146, i32 0, i32 3
  %148 = getelementptr inbounds %union.SourceSpan, ptr %145, i32 0, i32 0
  %149 = load i64, ptr %148, align 8
  %150 = getelementptr inbounds %union.SourceSpan, ptr %147, i32 0, i32 0
  %151 = load i64, ptr %150, align 8
  %152 = call i64 @extend_span_with_token(i64 %149, i64 %151)
  %153 = getelementptr inbounds %union.SourceSpan, ptr %25, i32 0, i32 0
  store i64 %152, ptr %153, align 8
  call void @llvm.memcpy.p0.p0.i64(ptr align 8 %143, ptr align 8 %25, i64 8, i1 false)
  br label %154

154:                                              ; preds = %141
  %155 = load ptr, ptr %24, align 8
  store ptr %155, ptr %18, align 8
  br label %156

156:                                              ; preds = %154, %138, %109, %88, %82, %75, %66, %49
  %157 = load ptr, ptr %18, align 8
  ret ptr %157
}