; Function Attrs: nounwind uwtable
define dso_local ptr @parse_const_declaration(ptr noundef %0, i1 noundef zeroext %1, i1 noundef zeroext %2) local_unnamed_addr #0 {
  tail call void @advance(ptr noundef %0) #8
  %4 = getelementptr inbounds i8, ptr %0, i64 40
  %5 = load i32, ptr %4, align 8
  %.not = icmp eq i32 %5, 65
  br i1 %.not, label %.critedge, label %6

6:                                                ; preds = %3
  %7 = tail call ptr @parse_optional_type(ptr noundef nonnull %0)
  %.not49 = icmp eq ptr %7, null
  br i1 %.not49, label %.critedge, label %8

8:                                                ; preds = %6
  %9 = load i16, ptr %7, align 8
  %10 = and i16 %9, 504
  %.not50 = icmp eq i16 %10, 0
  br i1 %.not50, label %11, label %.critedge

11:                                               ; preds = %8
  %12 = load ptr, ptr @poisoned_decl, align 8
  br label %65

.critedge:                                        ; preds = %8, %6, %3
  %.046 = phi ptr [ null, %3 ], [ null, %6 ], [ %7, %8 ]
  %13 = getelementptr inbounds i8, ptr %0, i64 16
  %14 = load ptr, ptr %13, align 8
  %15 = getelementptr inbounds i8, ptr %0, i64 48
  %16 = load i64, ptr %15, align 8
  %17 = tail call ptr @decl_new_var(ptr noundef %14, i64 %16, ptr noundef %.046, i32 noundef 0) #8
  %18 = load i32, ptr %4, align 8
  switch i32 %18, label %19 [
    i32 64, label %consume_const_name.exit.thread
    i32 66, label %consume_const_name.exit.thread
  ]

19:                                               ; preds = %.critedge
  %20 = add i32 %18, -82
  %21 = icmp ult i32 %20, 63
  br i1 %21, label %consume_const_name.exit.thread, label %consume_const_name.exit

consume_const_name.exit.thread:                   ; preds = %.critedge, %.critedge, %19
  %22 = load i64, ptr %15, align 8
  tail call void (i64, ptr, ...) @sema_error_at(i64 %22, ptr noundef nonnull @.str.17, ptr noundef nonnull @.str.23) #8
  br label %24

consume_const_name.exit:                          ; preds = %19
  %23 = tail call zeroext i1 (ptr, i32, ptr, ...) @consume(ptr noundef nonnull %0, i32 noundef 65, ptr noundef nonnull @.str.18) #8
  br i1 %23, label %26, label %24

24:                                               ; preds = %consume_const_name.exit.thread, %consume_const_name.exit
  %25 = load ptr, ptr @poisoned_decl, align 8
  br label %65

26:                                               ; preds = %consume_const_name.exit
  br i1 %1, label %27, label %29

27:                                               ; preds = %26
  %28 = tail call fastcc zeroext i1 @parse_attributes_for_global(ptr noundef nonnull %0, ptr noundef %17)
  %.not56 = xor i1 %28, true
  %brmerge = or i1 %.not56, %2
  %.mux = select i1 %28, ptr %17, ptr null
  br i1 %brmerge, label %65, label %35

29:                                               ; preds = %26
  %30 = getelementptr inbounds i8, ptr %17, i64 64
  %31 = tail call zeroext i1 @parse_attributes(ptr noundef nonnull %0, ptr noundef nonnull %30, ptr noundef null, ptr noundef null, ptr noundef null)
  br i1 %31, label %34, label %32

32:                                               ; preds = %29
  %33 = load ptr, ptr @poisoned_decl, align 8
  br label %65

34:                                               ; preds = %29
  br i1 %2, label %65, label %35

35:                                               ; preds = %27, %34
  %36 = load i32, ptr %4, align 8
  %37 = icmp eq i32 %36, 10
  br i1 %37, label %.critedge53, label %38

38:                                               ; preds = %35
  %39 = tail call ptr @token_type_to_string(i32 noundef 10) #8
  %40 = load i64, ptr %15, align 8
  tail call void (i64, ptr, ...) @sema_error_at(i64 %40, ptr noundef nonnull @.str.82, ptr noundef %39) #8
  %41 = load ptr, ptr @poisoned_decl, align 8
  br label %65

.critedge53:                                      ; preds = %35
  tail call void @advance(ptr noundef nonnull %0) #8
  %42 = tail call ptr @parse_expr(ptr noundef nonnull %0) #8
  %43 = icmp eq ptr %42, null
  br i1 %43, label %.critedge2, label %44

44:                                               ; preds = %.critedge53
  %45 = getelementptr inbounds i8, ptr %42, i64 16
  %46 = load i16, ptr %45, align 8
  %47 = and i16 %46, 255
  %.not51 = icmp eq i16 %47, 0
  br i1 %.not51, label %63, label %.critedge2

.critedge2:                                       ; preds = %.critedge53, %44
  %48 = getelementptr inbounds i8, ptr %17, i64 88
  store ptr %42, ptr %48, align 8
  %49 = getelementptr inbounds i8, ptr %17, i64 16
  %50 = getelementptr inbounds i8, ptr %0, i64 56
  %51 = load i64, ptr %49, align 8
  %52 = load i64, ptr %50, align 8
  %.not.unshifted.i = xor i64 %52, %51
  %.not.i = icmp ult i64 %.not.unshifted.i, 4294967296
  br i1 %.not.i, label %54, label %53

53:                                               ; preds = %.critedge2
  %.sroa.33.0.extract.shift.i = lshr i64 %51, 16
  br label %extend_span_with_token.exit

54:                                               ; preds = %.critedge2
  %.sroa.4.0.extract.shift.i = lshr i64 %51, 24
  %55 = trunc i64 %52 to i32
  %56 = lshr i32 %55, 24
  %57 = lshr i32 %55, 16
  %58 = trunc i64 %.sroa.4.0.extract.shift.i to i32
  %59 = sub i32 %57, %58
  %60 = add i32 %59, %56
  %61 = zext i32 %60 to i64
  br label %extend_span_with_token.exit

extend_span_with_token.exit:                      ; preds = %53, %54
  %.sroa.311.0.i = phi i64 [ %.sroa.33.0.extract.shift.i, %53 ], [ %61, %54 ]
  %.sroa.311.0.insert.ext.i = shl nuw i64 %.sroa.311.0.i, 16
  %.sroa.311.0.insert.shift.i = and i64 %.sroa.311.0.insert.ext.i, 16711680
  %62 = and i64 %51, -16711681
  %.sroa.010.0.insert.insert.i = or disjoint i64 %.sroa.311.0.insert.shift.i, %62
  store i64 %.sroa.010.0.insert.insert.i, ptr %49, align 8
  br label %65

63:                                               ; preds = %44
  %64 = load ptr, ptr @poisoned_decl, align 8
  br label %65

65:                                               ; preds = %27, %34, %extend_span_with_token.exit, %63, %38, %32, %24, %11
  %.045 = phi ptr [ %17, %extend_span_with_token.exit ], [ %64, %63 ], [ %41, %38 ], [ %33, %32 ], [ %25, %24 ], [ %12, %11 ], [ %.mux, %27 ], [ %17, %34 ]
  ret ptr %.045
}